; Function Attrs: nounwind uwtable
define void @COVER_best_start(ptr noundef %0) local_unnamed_addr #5 {
  %.not = icmp eq ptr %0, null
  br i1 %.not, label %8, label %2

2:                                                ; preds = %1
  %3 = tail call i32 @pthread_mutex_lock(ptr noundef nonnull %0) #22
  %4 = getelementptr inbounds nuw i8, ptr %0, i64 88
  %5 = load i64, ptr %4, align 8, !tbaa !60
  %6 = add i64 %5, 1
  store i64 %6, ptr %4, align 8, !tbaa !60
  %7 = tail call i32 @pthread_mutex_unlock(ptr noundef nonnull %0) #22
  br label %8

8:                                                ; preds = %1, %2
  ret void
}